target datalayout = "e-m:e-p270:32:32-p271:32:32-p272:64:64-i64:64-i128:128-f80:128-n8:16:32:64-S128"
target triple = "x86_64-pc-linux-gnu"

%"class.boost::shared_ptr.3" = type { ptr, %"class.boost::detail::shared_count" }
%"class.boost::detail::shared_count" = type { ptr }
%"class.boost::asio::ip::udp" = type { i32 }
%"class.boost::log::v2_mt_posix::sinks::syslog_backend" = type { ptr }
%"class.boost::log::v2_mt_posix::aux::light_function" = type { ptr }
%"struct.boost::log::v2_mt_posix::sinks::syslog_backend::implementation.base" = type <{ ptr, %"class.boost::log::v2_mt_posix::aux::light_function", i32 }>
%"class.boost::asio::ip::basic_endpoint" = type { %"class.boost::asio::ip::detail::endpoint" }
%"class.boost::asio::ip::detail::endpoint" = type { %"union.boost::asio::ip::detail::endpoint::data_union" }
%"union.boost::asio::ip::detail::endpoint::data_union" = type { %struct.sockaddr_in6 }
%struct.sockaddr_in6 = type { i16, i16, i32, %struct.in6_addr, i32 }
%struct.in6_addr = type { %union.anon.2 }
%union.anon.2 = type { [4 x i32] }
%"class.boost::asio::ip::address" = type { i32, %"class.boost::asio::ip::address_v4", %"class.boost::asio::ip::address_v6" }
%"class.boost::asio::ip::address_v4" = type { %struct.in_addr }
%struct.in_addr = type { i32 }
%"class.boost::asio::ip::address_v6" = type { %struct.in6_addr, i32 }
%"struct.boost::log::v2_mt_posix::sinks::syslog_backend::implementation::udp_socket_based" = type <{ %"struct.boost::log::v2_mt_posix::sinks::syslog_backend::implementation.base", %"class.boost::asio::ip::udp", %"class.boost::shared_ptr.3", %"class.std::unique_ptr", %"class.boost::asio::ip::basic_endpoint", [4 x i8] }>
%"class.std::unique_ptr" = type { %"struct.std::__uniq_ptr_data" }
%"struct.std::__uniq_ptr_data" = type { %"class.std::__uniq_ptr_impl" }
%"class.std::__uniq_ptr_impl" = type { %"class.std::tuple" }
%"class.std::tuple" = type { %"struct.std::_Tuple_impl" }
%"struct.std::_Tuple_impl" = type { %"struct.std::_Head_base.5" }
%"struct.std::_Head_base.5" = type { ptr }

@.str.4 = private unnamed_addr constant [121 x i8] c"generated/home/dtcxzyw/WorkSpace/Projects/compilers/llvm-opt-benchmark/bench/boost/boost/libs/log/src/syslog_backend.cpp\00", align 1
@_ZTIN5boost3log11v2_mt_posix5sinks14syslog_backend14implementationE = linkonce_odr hidden constant { ptr, ptr } { ptr getelementptr inbounds (ptr, ptr @_ZTVN10__cxxabiv117__class_type_infoE, i64 2), ptr @_ZTSN5boost3log11v2_mt_posix5sinks14syslog_backend14implementationE }, comdat, align 8
@.str.12 = private unnamed_addr constant [53 x i8] c"Incorrect IP version specified in the target address\00", align 1

; Function Attrs: mustprogress nounwind uwtable
define linkonce_odr hidden noundef nonnull align 4 dereferenceable(28) ptr @_ZN5boost4asio2ip6detail8endpointaSERKS3_(ptr noundef nonnull align 4 dereferenceable(28) %0, ptr noundef nonnull align 4 dereferenceable(28) %1) #2 comdat align 2 {
  %3 = alloca ptr, align 8
  %4 = alloca ptr, align 8
  store ptr %0, ptr %3, align 8, !tbaa !7
  store ptr %1, ptr %4, align 8, !tbaa !7
  %5 = load ptr, ptr %3, align 8
  %6 = load ptr, ptr %4, align 8, !tbaa !7
  %7 = getelementptr inbounds nuw %"class.boost::asio::ip::detail::endpoint", ptr %6, i32 0, i32 0
  %8 = getelementptr inbounds nuw %"class.boost::asio::ip::detail::endpoint", ptr %5, i32 0, i32 0
  call void @llvm.memcpy.p0.p0.i64(ptr align 4 %8, ptr align 4 %7, i64 28, i1 false), !tbaa.struct !413
  ret ptr %5
}

; Function Attrs: mustprogress nounwind uwtable
define linkonce_odr hidden void @_ZN5boost4asio2ip3udpC2Ei(ptr noundef nonnull align 4 dereferenceable(4) %0, i32 noundef %1) unnamed_addr #2 comdat align 2 {
  %3 = alloca ptr, align 8
  %4 = alloca i32, align 4
  store ptr %0, ptr %3, align 8, !tbaa !7
  store i32 %1, ptr %4, align 4, !tbaa !3
  %5 = load ptr, ptr %3, align 8
  %6 = getelementptr inbounds nuw %"class.boost::asio::ip::udp", ptr %5, i32 0, i32 0
  %7 = load i32, ptr %4, align 4, !tbaa !3
  store i32 %7, ptr %6, align 4, !tbaa !57
  ret void
}

; Function Attrs: mustprogress nounwind uwtable
define linkonce_odr hidden noundef nonnull align 4 dereferenceable(28) ptr @_ZN5boost4asio2ip14basic_endpointINS1_3udpEEaSEOS4_(ptr noundef nonnull align 4 dereferenceable(28) %0, ptr noundef nonnull align 4 dereferenceable(28) %1) #2 comdat align 2 {
  %3 = alloca ptr, align 8
  %4 = alloca ptr, align 8
  store ptr %0, ptr %3, align 8, !tbaa !7
  store ptr %1, ptr %4, align 8, !tbaa !7
  %5 = load ptr, ptr %3, align 8
  %6 = load ptr, ptr %4, align 8, !tbaa !7
  %7 = getelementptr inbounds nuw %"class.boost::asio::ip::basic_endpoint", ptr %6, i32 0, i32 0
  %8 = getelementptr inbounds nuw %"class.boost::asio::ip::basic_endpoint", ptr %5, i32 0, i32 0
  %9 = call noundef nonnull align 4 dereferenceable(28) ptr @_ZN5boost4asio2ip6detail8endpointaSERKS3_(ptr noundef nonnull align 4 dereferenceable(28) %8, ptr noundef nonnull align 4 dereferenceable(28) %7) #16
  ret ptr %5
}

; Function Attrs: mustprogress nounwind uwtable
define linkonce_odr hidden noundef zeroext i1 @_ZNK5boost4asio2ip7address5is_v6Ev(ptr noundef nonnull align 4 dereferenceable(28) %0) #2 comdat align 2 {
  %2 = alloca ptr, align 8
  store ptr %0, ptr %2, align 8, !tbaa !7
  %3 = load ptr, ptr %2, align 8
  %4 = getelementptr inbounds nuw %"class.boost::asio::ip::address", ptr %3, i32 0, i32 0
  %5 = load i32, ptr %4, align 4, !tbaa !59
  %6 = icmp eq i32 %5, 1
  ret i1 %6
}

; Function Attrs: mustprogress nounwind uwtable
define linkonce_odr hidden i32 @_ZN5boost4asio2ip3udp2v6Ev() #2 comdat align 2 {
  %1 = alloca %"class.boost::asio::ip::udp", align 4
  call void @_ZN5boost4asio2ip3udpC2Ei(ptr noundef nonnull align 4 dereferenceable(4) %1, i32 noundef 10) #16
  %2 = getelementptr inbounds nuw %"class.boost::asio::ip::udp", ptr %1, i32 0, i32 0
  %3 = load i32, ptr %2, align 4
  ret i32 %3
}

; Function Attrs: mustprogress nounwind uwtable
define linkonce_odr hidden noundef zeroext i1 @_ZNK5boost4asio2ip7address5is_v4Ev(ptr noundef nonnull align 4 dereferenceable(28) %0) #2 comdat align 2 {
  %2 = alloca ptr, align 8
  store ptr %0, ptr %2, align 8, !tbaa !7
  %3 = load ptr, ptr %2, align 8
  %4 = getelementptr inbounds nuw %"class.boost::asio::ip::address", ptr %3, i32 0, i32 0
  %5 = load i32, ptr %4, align 4, !tbaa !59
  %6 = icmp eq i32 %5, 0
  ret i1 %6
}

; Function Attrs: mustprogress nounwind uwtable
define linkonce_odr noundef zeroext i1 @_ZN5boost4asio2ipeqERKNS1_3udpES4_(ptr noundef nonnull align 4 dereferenceable(4) %0, ptr noundef nonnull align 4 dereferenceable(4) %1) #2 comdat {
  %3 = alloca ptr, align 8
  %4 = alloca ptr, align 8
  store ptr %0, ptr %3, align 8, !tbaa !7
  store ptr %1, ptr %4, align 8, !tbaa !7
  %5 = load ptr, ptr %3, align 8, !tbaa !7
  %6 = getelementptr inbounds nuw %"class.boost::asio::ip::udp", ptr %5, i32 0, i32 0
  %7 = load i32, ptr %6, align 4, !tbaa !57
  %8 = load ptr, ptr %4, align 8, !tbaa !7
  %9 = getelementptr inbounds nuw %"class.boost::asio::ip::udp", ptr %8, i32 0, i32 0
  %10 = load i32, ptr %9, align 4, !tbaa !57
  %11 = icmp eq i32 %7, %10
  ret i1 %11
}

; Function Attrs: mustprogress nounwind uwtable
define linkonce_odr hidden i32 @_ZN5boost4asio2ip3udp2v4Ev() #2 comdat align 2 {
  %1 = alloca %"class.boost::asio::ip::udp", align 4
  call void @_ZN5boost4asio2ip3udpC2Ei(ptr noundef nonnull align 4 dereferenceable(4) %1, i32 noundef 2) #16
  %2 = getelementptr inbounds nuw %"class.boost::asio::ip::udp", ptr %1, i32 0, i32 0
  %3 = load i32, ptr %2, align 4
  ret i32 %3
}

; Function Attrs: mustprogress uwtable
define void @_ZN5boost3log11v2_mt_posix5sinks14syslog_backend18set_target_addressERKNS_4asio2ip7addressEt(ptr noundef nonnull align 8 dereferenceable(8) %0, ptr noundef nonnull align 4 dereferenceable(28) %1, i16 noundef zeroext %2) #5 align 2 {
  %4 = alloca ptr, align 8
  %5 = alloca ptr, align 8
  %6 = alloca i16, align 2
  %7 = alloca ptr, align 8
  %8 = alloca %"class.boost::asio::ip::udp", align 4
  %9 = alloca %"class.boost::asio::ip::udp", align 4
  %10 = alloca %"class.boost::asio::ip::basic_endpoint", align 4
  store ptr %0, ptr %4, align 8, !tbaa !7
  store ptr %1, ptr %5, align 8, !tbaa !7
  store i16 %2, ptr %6, align 2, !tbaa !45
  %11 = load ptr, ptr %4, align 8
  call void @llvm.lifetime.start.p0(i64 8, ptr %7) #16
  %12 = getelementptr inbounds nuw %"class.boost::log::v2_mt_posix::sinks::syslog_backend", ptr %11, i32 0, i32 0
  %13 = load ptr, ptr %12, align 8, !tbaa !35
  %14 = icmp eq ptr %13, null
  br i1 %14, label %17, label %15

15:                                               ; preds = %3
  %16 = call ptr @__dynamic_cast(ptr %13, ptr @_ZTIN5boost3log11v2_mt_posix5sinks14syslog_backend14implementationE, ptr @_ZTIN5boost3log11v2_mt_posix5sinks14syslog_backend14implementation16udp_socket_basedE, i64 0) #16
  br label %18

17:                                               ; preds = %3
  br label %18

18:                                               ; preds = %17, %15
  %19 = phi ptr [ %16, %15 ], [ null, %17 ]
  store ptr %19, ptr %7, align 8, !tbaa !7
  %20 = load ptr, ptr %7, align 8, !tbaa !7
  %21 = icmp ne ptr %20, null
  br i1 %21, label %22, label %52

22:                                               ; preds = %18
  %23 = load ptr, ptr %7, align 8, !tbaa !7
  %24 = getelementptr inbounds nuw %"struct.boost::log::v2_mt_posix::sinks::syslog_backend::implementation::udp_socket_based", ptr %23, i32 0, i32 1
  call void @llvm.lifetime.start.p0(i64 4, ptr %8) #16
  %25 = call i32 @_ZN5boost4asio2ip3udp2v4Ev() #16
  %26 = getelementptr inbounds nuw %"class.boost::asio::ip::udp", ptr %8, i32 0, i32 0
  store i32 %25, ptr %26, align 4
  %27 = call noundef zeroext i1 @_ZN5boost4asio2ipeqERKNS1_3udpES4_(ptr noundef nonnull align 4 dereferenceable(4) %24, ptr noundef nonnull align 4 dereferenceable(4) %8)
  call void @llvm.lifetime.start.p0(i64 4, ptr %9) #16
  br i1 %27, label %28, label %31

28:                                               ; preds = %22
  %29 = load ptr, ptr %5, align 8, !tbaa !7
  %30 = call noundef zeroext i1 @_ZNK5boost4asio2ip7address5is_v4Ev(ptr noundef nonnull align 4 dereferenceable(28) %29) #16
  br i1 %30, label %31, label %43

31:                                               ; preds = %28, %22
  %32 = load ptr, ptr %7, align 8, !tbaa !7
  %33 = getelementptr inbounds nuw %"struct.boost::log::v2_mt_posix::sinks::syslog_backend::implementation::udp_socket_based", ptr %32, i32 0, i32 1
  %34 = call i32 @_ZN5boost4asio2ip3udp2v6Ev() #16
  %35 = getelementptr inbounds nuw %"class.boost::asio::ip::udp", ptr %9, i32 0, i32 0
  store i32 %34, ptr %35, align 4
  %36 = call noundef zeroext i1 @_ZN5boost4asio2ipeqERKNS1_3udpES4_(ptr noundef nonnull align 4 dereferenceable(4) %33, ptr noundef nonnull align 4 dereferenceable(4) %9)
  br i1 %36, label %37, label %41

37:                                               ; preds = %31
  %38 = load ptr, ptr %5, align 8, !tbaa !7
  %39 = call noundef zeroext i1 @_ZNK5boost4asio2ip7address5is_v6Ev(ptr noundef nonnull align 4 dereferenceable(28) %38) #16
  %40 = xor i1 %39, true
  br label %41

41:                                               ; preds = %37, %31
  %42 = phi i1 [ false, %31 ], [ %40, %37 ]
  br label %43

43:                                               ; preds = %41, %28
  %44 = phi i1 [ true, %28 ], [ %42, %41 ]
  call void @llvm.lifetime.end.p0(i64 4, ptr %9) #16
  call void @llvm.lifetime.end.p0(i64 4, ptr %8) #16
  br i1 %44, label %45, label %46

45:                                               ; preds = %43
  call void @_ZN5boost3log11v2_mt_posix11setup_error6throw_EPKcmS4_(ptr noundef @.str.4, i64 noundef 614, ptr noundef @.str.12) #30
  unreachable

46:                                               ; preds = %43
  call void @llvm.lifetime.start.p0(i64 28, ptr %10) #16
  %47 = load ptr, ptr %5, align 8, !tbaa !7
  %48 = load i16, ptr %6, align 2, !tbaa !45
  call void @_ZN5boost4asio2ip14basic_endpointINS1_3udpEEC2ERKNS1_7addressEt(ptr noundef nonnull align 4 dereferenceable(28) %10, ptr noundef nonnull align 4 dereferenceable(28) %47, i16 noundef zeroext %48) #16
  %49 = load ptr, ptr %7, align 8, !tbaa !7
  %50 = getelementptr inbounds nuw %"struct.boost::log::v2_mt_posix::sinks::syslog_backend::implementation::udp_socket_based", ptr %49, i32 0, i32 4
  %51 = call noundef nonnull align 4 dereferenceable(28) ptr @_ZN5boost4asio2ip14basic_endpointINS1_3udpEEaSEOS4_(ptr noundef nonnull align 4 dereferenceable(28) %50, ptr noundef nonnull align 4 dereferenceable(28) %10) #16
  call void @llvm.lifetime.end.p0(i64 28, ptr %10) #16
  br label %52

52:                                               ; preds = %46, %18
  call void @llvm.lifetime.end.p0(i64 8, ptr %7) #16
  ret void
}