; Function Attrs: mustprogress uwtable
define void @_ZN5boost3log11v2_mt_posix5sinks14syslog_backend18set_target_addressERKNS_4asio2ip7addressEt(ptr nocapture noundef nonnull readonly align 8 dereferenceable(8) %0, ptr noundef nonnull align 4 dereferenceable(28) %1, i16 noundef zeroext %2) local_unnamed_addr #4 align 2 {
  %4 = alloca %"class.boost::asio::ip::basic_endpoint", align 4
  %5 = load ptr, ptr %0, align 8, !tbaa !48
  %6 = icmp eq ptr %5, null
  br i1 %6, label %.thread, label %7

7:                                                ; preds = %3
  %8 = tail call ptr @__dynamic_cast(ptr nonnull %5, ptr nonnull @_ZTIN5boost3log11v2_mt_posix5sinks14syslog_backend14implementationE, ptr nonnull @_ZTIN5boost3log11v2_mt_posix5sinks14syslog_backend14implementation16udp_socket_basedE, i64 0) #33
  %.not = icmp eq ptr %8, null
  br i1 %.not, label %.thread, label %9

9:                                                ; preds = %7
  %10 = getelementptr inbounds nuw i8, ptr %8, i64 20
  %11 = load i32, ptr %10, align 4, !tbaa !46
  switch i32 %11, label %.critedge2 [
    i32 2, label %12
    i32 10, label %15
  ]

12:                                               ; preds = %9
  %13 = load i32, ptr %1, align 4, !tbaa !100
  %14 = icmp eq i32 %13, 0
  br i1 %14, label %.critedge2, label %.critedge

15:                                               ; preds = %9
  %16 = load i32, ptr %1, align 4, !tbaa !100
  %17 = icmp eq i32 %16, 1
  br i1 %17, label %.critedge2, label %.critedge

.critedge:                                        ; preds = %12, %15
  tail call void @_ZN5boost3log11v2_mt_posix11setup_error6throw_EPKcmS4_(ptr noundef nonnull @.str.4, i64 noundef 614, ptr noundef nonnull @.str.12) #35
  unreachable

.critedge2:                                       ; preds = %9, %12, %15
  call void @llvm.lifetime.start.p0(i64 28, ptr nonnull %4) #33
  call void @_ZN5boost4asio2ip14basic_endpointINS1_3udpEEC2ERKNS1_7addressEt(ptr noundef nonnull align 4 dereferenceable(28) %4, ptr noundef nonnull align 4 dereferenceable(28) %1, i16 noundef zeroext %2) #33
  %18 = getelementptr inbounds nuw i8, ptr %8, i64 48
  call void @llvm.memcpy.p0.p0.i64(ptr noundef nonnull align 4 dereferenceable(28) %18, ptr noundef nonnull align 4 dereferenceable(28) %4, i64 28, i1 false), !tbaa.struct !120
  call void @llvm.lifetime.end.p0(i64 28, ptr nonnull %4) #33
  br label %.thread

.thread:                                          ; preds = %3, %.critedge2, %7
  ret void
}